target datalayout = "e-m:e-p270:32:32-p271:32:32-p272:64:64-i64:64-i128:128-f80:128-n8:16:32:64-S128"
target triple = "x86_64-pc-linux-gnu"

%struct.dt_iop_lut3d_params_v3_t = type { [512 x i8], i32, i32, i32, [12288 x i8], [128 x i8] }
%struct.dt_iop_lut3d_params_v1_t = type { [512 x i8], i32, i32 }

; Function Attrs: nounwind uwtable
define i32 @legacy_params(ptr noundef %0, ptr noundef %1, i32 noundef %2, ptr noundef %3, ptr noundef %4, ptr noundef %5) #0 {
  %7 = alloca i32, align 4
  %8 = alloca ptr, align 8
  %9 = alloca ptr, align 8
  %10 = alloca i32, align 4
  %11 = alloca ptr, align 8
  %12 = alloca ptr, align 8
  %13 = alloca ptr, align 8
  %14 = alloca ptr, align 8
  %15 = alloca ptr, align 8
  %16 = alloca ptr, align 8
  %17 = alloca ptr, align 8
  store ptr %0, ptr %8, align 8, !tbaa !6
  store ptr %1, ptr %9, align 8, !tbaa !15
  store i32 %2, ptr %10, align 4, !tbaa !16
  store ptr %3, ptr %11, align 8, !tbaa !15
  store ptr %4, ptr %12, align 8, !tbaa !18
  store ptr %5, ptr %13, align 8, !tbaa !18
  %18 = load i32, ptr %10, align 4, !tbaa !16
  %19 = icmp eq i32 %18, 1
  br i1 %19, label %20, label %50

20:                                               ; preds = %6
  call void @llvm.lifetime.start.p0(i64 8, ptr %14) #13
  %21 = load ptr, ptr %9, align 8, !tbaa !15
  store ptr %21, ptr %14, align 8, !tbaa !20
  call void @llvm.lifetime.start.p0(i64 8, ptr %15) #13
  %22 = call noalias ptr @malloc(i64 noundef 12940) #14
  store ptr %22, ptr %15, align 8, !tbaa !22
  %23 = load ptr, ptr %15, align 8, !tbaa !22
  %24 = getelementptr inbounds nuw %struct.dt_iop_lut3d_params_v3_t, ptr %23, i32 0, i32 0
  %25 = getelementptr inbounds [512 x i8], ptr %24, i64 0, i64 0
  %26 = load ptr, ptr %14, align 8, !tbaa !20
  %27 = getelementptr inbounds nuw %struct.dt_iop_lut3d_params_v1_t, ptr %26, i32 0, i32 0
  %28 = getelementptr inbounds [512 x i8], ptr %27, i64 0, i64 0
  %29 = call i64 @g_strlcpy(ptr noundef %25, ptr noundef %28, i64 noundef 512)
  %30 = load ptr, ptr %14, align 8, !tbaa !20
  %31 = getelementptr inbounds nuw %struct.dt_iop_lut3d_params_v1_t, ptr %30, i32 0, i32 1
  %32 = load i32, ptr %31, align 4, !tbaa !24
  %33 = load ptr, ptr %15, align 8, !tbaa !22
  %34 = getelementptr inbounds nuw %struct.dt_iop_lut3d_params_v3_t, ptr %33, i32 0, i32 1
  store i32 %32, ptr %34, align 4, !tbaa !26
  %35 = load ptr, ptr %14, align 8, !tbaa !20
  %36 = getelementptr inbounds nuw %struct.dt_iop_lut3d_params_v1_t, ptr %35, i32 0, i32 2
  %37 = load i32, ptr %36, align 4, !tbaa !28
  %38 = load ptr, ptr %15, align 8, !tbaa !22
  %39 = getelementptr inbounds nuw %struct.dt_iop_lut3d_params_v3_t, ptr %38, i32 0, i32 2
  store i32 %37, ptr %39, align 4, !tbaa !29
  %40 = load ptr, ptr %15, align 8, !tbaa !22
  %41 = getelementptr inbounds nuw %struct.dt_iop_lut3d_params_v3_t, ptr %40, i32 0, i32 3
  store i32 0, ptr %41, align 4, !tbaa !30
  %42 = load ptr, ptr %15, align 8, !tbaa !22
  %43 = getelementptr inbounds nuw %struct.dt_iop_lut3d_params_v3_t, ptr %42, i32 0, i32 4
  call void @llvm.memset.p0.i64(ptr align 4 %43, i8 0, i64 12288, i1 false)
  %44 = load ptr, ptr %15, align 8, !tbaa !22
  %45 = getelementptr inbounds nuw %struct.dt_iop_lut3d_params_v3_t, ptr %44, i32 0, i32 5
  call void @llvm.memset.p0.i64(ptr align 4 %45, i8 0, i64 128, i1 false)
  %46 = load ptr, ptr %15, align 8, !tbaa !22
  %47 = load ptr, ptr %11, align 8, !tbaa !15
  store ptr %46, ptr %47, align 8, !tbaa !15
  %48 = load ptr, ptr %12, align 8, !tbaa !18
  store i32 12940, ptr %48, align 4, !tbaa !16
  %49 = load ptr, ptr %13, align 8, !tbaa !18
  store i32 3, ptr %49, align 4, !tbaa !16
  store i32 0, ptr %7, align 4
  call void @llvm.lifetime.end.p0(i64 8, ptr %15) #13
  call void @llvm.lifetime.end.p0(i64 8, ptr %14) #13
  br label %63

50:                                               ; preds = %6
  %51 = load i32, ptr %10, align 4, !tbaa !16
  %52 = icmp eq i32 %51, 2
  br i1 %52, label %53, label %62

53:                                               ; preds = %50
  call void @llvm.lifetime.start.p0(i64 8, ptr %16) #13
  %54 = load ptr, ptr %9, align 8, !tbaa !15
  store ptr %54, ptr %16, align 8, !tbaa !31
  call void @llvm.lifetime.start.p0(i64 8, ptr %17) #13
  %55 = call noalias ptr @malloc(i64 noundef 12940) #14
  store ptr %55, ptr %17, align 8, !tbaa !22
  %56 = load ptr, ptr %17, align 8, !tbaa !22
  %57 = load ptr, ptr %16, align 8, !tbaa !31
  call void @llvm.memcpy.p0.p0.i64(ptr align 4 %56, ptr align 4 %57, i64 12940, i1 false)
  %58 = load ptr, ptr %17, align 8, !tbaa !22
  %59 = load ptr, ptr %11, align 8, !tbaa !15
  store ptr %58, ptr %59, align 8, !tbaa !15
  %60 = load ptr, ptr %12, align 8, !tbaa !18
  store i32 12940, ptr %60, align 4, !tbaa !16
  %61 = load ptr, ptr %13, align 8, !tbaa !18
  store i32 3, ptr %61, align 4, !tbaa !16
  store i32 0, ptr %7, align 4
  call void @llvm.lifetime.end.p0(i64 8, ptr %17) #13
  call void @llvm.lifetime.end.p0(i64 8, ptr %16) #13
  br label %63

62:                                               ; preds = %50
  store i32 1, ptr %7, align 4
  br label %63

63:                                               ; preds = %62, %53, %20
  %64 = load i32, ptr %7, align 4
  ret i32 %64
}