; Function Attrs: nounwind uwtable
define range(i32 0, 2) i32 @legacy_params(ptr noundef readnone captures(none) %0, ptr noundef %1, i32 noundef %2, ptr noundef writeonly captures(none) %3, ptr noundef writeonly captures(none) %4, ptr noundef writeonly captures(none) %5) local_unnamed_addr #1 {
  switch i32 %2, label %19 [
    i32 1, label %7
    i32 2, label %17
  ]

7:                                                ; preds = %6
  %8 = tail call noalias dereferenceable_or_null(12940) ptr @malloc(i64 noundef 12940) #26
  %9 = tail call i64 @g_strlcpy(ptr noundef %8, ptr noundef %1, i64 noundef 512) #25
  %10 = getelementptr inbounds nuw i8, ptr %1, i64 512
  %11 = load i32, ptr %10, align 4, !tbaa !6
  %12 = getelementptr inbounds nuw i8, ptr %8, i64 512
  store i32 %11, ptr %12, align 4, !tbaa !11
  %13 = getelementptr inbounds nuw i8, ptr %1, i64 516
  %14 = load i32, ptr %13, align 4, !tbaa !13
  %15 = getelementptr inbounds nuw i8, ptr %8, i64 516
  store i32 %14, ptr %15, align 4, !tbaa !14
  %16 = getelementptr inbounds nuw i8, ptr %8, i64 520
  tail call void @llvm.memset.p0.i64(ptr noundef nonnull align 4 dereferenceable(12420) %16, i8 0, i64 12420, i1 false)
  br label %.sink.split

17:                                               ; preds = %6
  %18 = tail call noalias dereferenceable_or_null(12940) ptr @malloc(i64 noundef 12940) #26
  tail call void @llvm.memcpy.p0.p0.i64(ptr noundef nonnull align 4 dereferenceable(12940) %18, ptr noundef nonnull align 4 dereferenceable(12940) %1, i64 12940, i1 false)
  br label %.sink.split

.sink.split:                                      ; preds = %7, %17
  %.sink = phi ptr [ %18, %17 ], [ %8, %7 ]
  store ptr %.sink, ptr %3, align 8, !tbaa !15
  store i32 12940, ptr %4, align 4, !tbaa !17
  store i32 3, ptr %5, align 4, !tbaa !17
  br label %19

19:                                               ; preds = %.sink.split, %6
  %.0 = phi i32 [ 1, %6 ], [ 0, %.sink.split ]
  ret i32 %.0
}